; Function Attrs: nounwind uwtable
define internal i32 @gdsdb_compile(ptr noundef %0, ptr readnone captures(none) %1, ptr noundef %2, i32 noundef %3) #0 {
  %5 = tail call i32 @tvb_reported_length_remaining(ptr noundef %0, i32 noundef %3) #3
  %6 = icmp slt i32 %5, 8
  br i1 %6, label %add_uint_string.exit, label %7

7:                                                ; preds = %4
  %8 = add i32 %3, 4
  %9 = tail call i32 @tvb_get_ntohl(ptr noundef %0, i32 noundef %8) #3
  %reass.sub.i = and i32 %9, -4
  %10 = add i32 %reass.sub.i, 12
  %11 = icmp slt i32 %5, %10
  br i1 %11, label %add_uint_string.exit, label %12

12:                                               ; preds = %7
  %13 = load i32, ptr @hf_gdsdb_compile_database, align 4
  %14 = tail call ptr @proto_tree_add_item(ptr noundef %2, i32 noundef %13, ptr noundef %0, i32 noundef %3, i32 noundef 4, i32 noundef 0) #3
  %15 = load i32, ptr @hf_gdsdb_compile_blr, align 4
  %16 = tail call ptr @proto_tree_add_item(ptr noundef %2, i32 noundef %15, ptr noundef %0, i32 noundef %8, i32 noundef 4, i32 noundef 0) #3
  %17 = tail call i32 @tvb_get_ntohl(ptr noundef %0, i32 noundef %8) #3
  %reass.sub.i.i = and i32 %17, -4
  %18 = add i32 %reass.sub.i.i, 8
  tail call void @proto_item_set_len(ptr noundef %16, i32 noundef %18) #3
  %19 = add i32 %18, %8
  %20 = add i32 %17, -2147483640
  %21 = icmp ult i32 %20, -2147483644
  %22 = icmp slt i32 %19, %8
  %or.cond.i = or i1 %21, %22
  br i1 %or.cond.i, label %23, label %add_uint_string.exit

23:                                               ; preds = %12
  %24 = tail call ptr (ptr, ptr, ptr, ptr, ...) @expert_add_info_format(ptr noundef null, ptr noundef %16, ptr noundef nonnull @ei_gdsdb_invalid_length, ptr noundef nonnull @.str.281, i32 noundef %18) #3
  %25 = tail call i32 @tvb_reported_length(ptr noundef %0) #3
  br label %add_uint_string.exit

add_uint_string.exit:                             ; preds = %23, %12, %7, %4
  %.0 = phi i32 [ -1, %4 ], [ -1, %7 ], [ %25, %23 ], [ %19, %12 ]
  ret i32 %.0
}